target datalayout = "e-m:e-p270:32:32-p271:32:32-p272:64:64-i64:64-i128:128-f80:128-n8:16:32:64-S128"
target triple = "x86_64-pc-linux-gnu"

%struct.AVFormatContext = type { ptr, ptr, ptr, ptr, ptr, i32, i32, ptr, i32, ptr, i32, ptr, ptr, i64, i64, i64, i32, i32, i32, i64, i64, ptr, i32, i32, ptr, i32, i32, i32, i32, ptr, i64, i32, i32, %struct.AVIOInterruptCB, i32, i32, i32, i32, i64, i32, i32, i32, i32, i32, i32, i32, i32, i32, i32, i32, i32, i64, i32, i32, i32, i32, i32, ptr, ptr, ptr, ptr, i32, ptr, ptr, ptr, ptr, i32, ptr, ptr, i64, ptr, ptr, ptr, i64 }
%struct.AVIOInterruptCB = type { ptr, ptr }
%struct.AVPacket = type { ptr, i64, i64, ptr, i32, i32, i32, ptr, i32, i64, i64, ptr, ptr, %struct.AVRational }
%struct.AVRational = type { i32, i32 }
%struct.AVPacketSideData = type { ptr, i64, i32 }

@.str.3 = private unnamed_addr constant [36 x i8] c"%d, %10ld, %10ld, %8ld, %8d, 0x%08x\00", align 1
@.str.4 = private unnamed_addr constant [10 x i8] c", F=0x%0X\00", align 1
@.str.5 = private unnamed_addr constant [7 x i8] c", S=%d\00", align 1
@.str.6 = private unnamed_addr constant [7 x i8] c", %8zu\00", align 1
@.str.7 = private unnamed_addr constant [2 x i8] c"\0A\00", align 1

; Function Attrs: nounwind uwtable
define internal i32 @framecrc_write_packet(ptr noundef %0, ptr noundef %1) #0 {
  %3 = alloca ptr, align 8
  %4 = alloca ptr, align 8
  %5 = alloca i32, align 4
  %6 = alloca [256 x i8], align 16
  %7 = alloca i32, align 4
  store ptr %0, ptr %3, align 8, !tbaa !4
  store ptr %1, ptr %4, align 8, !tbaa !45
  call void @llvm.lifetime.start.p0(i64 4, ptr %5) #5
  %8 = load ptr, ptr %4, align 8, !tbaa !45
  %9 = getelementptr inbounds nuw %struct.AVPacket, ptr %8, i32 0, i32 3
  %10 = load ptr, ptr %9, align 8, !tbaa !47
  %11 = load ptr, ptr %4, align 8, !tbaa !45
  %12 = getelementptr inbounds nuw %struct.AVPacket, ptr %11, i32 0, i32 4
  %13 = load i32, ptr %12, align 8, !tbaa !48
  %14 = sext i32 %13 to i64
  %15 = call i32 @av_adler32_update(i32 noundef 0, ptr noundef %10, i64 noundef %14) #6
  store i32 %15, ptr %5, align 4, !tbaa !9
  call void @llvm.lifetime.start.p0(i64 256, ptr %6) #5
  %16 = getelementptr inbounds [256 x i8], ptr %6, i64 0, i64 0
  %17 = load ptr, ptr %4, align 8, !tbaa !45
  %18 = getelementptr inbounds nuw %struct.AVPacket, ptr %17, i32 0, i32 5
  %19 = load i32, ptr %18, align 4, !tbaa !49
  %20 = load ptr, ptr %4, align 8, !tbaa !45
  %21 = getelementptr inbounds nuw %struct.AVPacket, ptr %20, i32 0, i32 2
  %22 = load i64, ptr %21, align 8, !tbaa !50
  %23 = load ptr, ptr %4, align 8, !tbaa !45
  %24 = getelementptr inbounds nuw %struct.AVPacket, ptr %23, i32 0, i32 1
  %25 = load i64, ptr %24, align 8, !tbaa !51
  %26 = load ptr, ptr %4, align 8, !tbaa !45
  %27 = getelementptr inbounds nuw %struct.AVPacket, ptr %26, i32 0, i32 9
  %28 = load i64, ptr %27, align 8, !tbaa !52
  %29 = load ptr, ptr %4, align 8, !tbaa !45
  %30 = getelementptr inbounds nuw %struct.AVPacket, ptr %29, i32 0, i32 4
  %31 = load i32, ptr %30, align 8, !tbaa !48
  %32 = load i32, ptr %5, align 4, !tbaa !9
  %33 = call i32 (ptr, i64, ptr, ...) @snprintf(ptr noundef %16, i64 noundef 256, ptr noundef @.str.3, i32 noundef %19, i64 noundef %22, i64 noundef %25, i64 noundef %28, i32 noundef %31, i32 noundef %32) #5
  %34 = load ptr, ptr %4, align 8, !tbaa !45
  %35 = getelementptr inbounds nuw %struct.AVPacket, ptr %34, i32 0, i32 6
  %36 = load i32, ptr %35, align 8, !tbaa !53
  %37 = icmp ne i32 %36, 1
  br i1 %37, label %38, label %44

38:                                               ; preds = %2
  %39 = getelementptr inbounds [256 x i8], ptr %6, i64 0, i64 0
  %40 = load ptr, ptr %4, align 8, !tbaa !45
  %41 = getelementptr inbounds nuw %struct.AVPacket, ptr %40, i32 0, i32 6
  %42 = load i32, ptr %41, align 8, !tbaa !53
  %43 = call i64 (ptr, i64, ptr, ...) @av_strlcatf(ptr noundef %39, i64 noundef 256, ptr noundef @.str.4, i32 noundef %42)
  br label %44

44:                                               ; preds = %38, %2
  %45 = load ptr, ptr %4, align 8, !tbaa !45
  %46 = getelementptr inbounds nuw %struct.AVPacket, ptr %45, i32 0, i32 8
  %47 = load i32, ptr %46, align 8, !tbaa !54
  %48 = icmp ne i32 %47, 0
  br i1 %48, label %49, label %77

49:                                               ; preds = %44
  %50 = getelementptr inbounds [256 x i8], ptr %6, i64 0, i64 0
  %51 = load ptr, ptr %4, align 8, !tbaa !45
  %52 = getelementptr inbounds nuw %struct.AVPacket, ptr %51, i32 0, i32 8
  %53 = load i32, ptr %52, align 8, !tbaa !54
  %54 = call i64 (ptr, i64, ptr, ...) @av_strlcatf(ptr noundef %50, i64 noundef 256, ptr noundef @.str.5, i32 noundef %53)
  call void @llvm.lifetime.start.p0(i64 4, ptr %7) #5
  store i32 0, ptr %7, align 4, !tbaa !9
  br label %55

55:                                               ; preds = %73, %49
  %56 = load i32, ptr %7, align 4, !tbaa !9
  %57 = load ptr, ptr %4, align 8, !tbaa !45
  %58 = getelementptr inbounds nuw %struct.AVPacket, ptr %57, i32 0, i32 8
  %59 = load i32, ptr %58, align 8, !tbaa !54
  %60 = icmp slt i32 %56, %59
  br i1 %60, label %62, label %61

61:                                               ; preds = %55
  call void @llvm.lifetime.end.p0(i64 4, ptr %7) #5
  br label %76

62:                                               ; preds = %55
  %63 = getelementptr inbounds [256 x i8], ptr %6, i64 0, i64 0
  %64 = load ptr, ptr %4, align 8, !tbaa !45
  %65 = getelementptr inbounds nuw %struct.AVPacket, ptr %64, i32 0, i32 7
  %66 = load ptr, ptr %65, align 8, !tbaa !55
  %67 = load i32, ptr %7, align 4, !tbaa !9
  %68 = sext i32 %67 to i64
  %69 = getelementptr inbounds %struct.AVPacketSideData, ptr %66, i64 %68
  %70 = getelementptr inbounds nuw %struct.AVPacketSideData, ptr %69, i32 0, i32 1
  %71 = load i64, ptr %70, align 8, !tbaa !56
  %72 = call i64 (ptr, i64, ptr, ...) @av_strlcatf(ptr noundef %63, i64 noundef 256, ptr noundef @.str.6, i64 noundef %71)
  br label %73

73:                                               ; preds = %62
  %74 = load i32, ptr %7, align 4, !tbaa !9
  %75 = add nsw i32 %74, 1
  store i32 %75, ptr %7, align 4, !tbaa !9
  br label %55, !llvm.loop !58

76:                                               ; preds = %61
  br label %77

77:                                               ; preds = %76, %44
  %78 = getelementptr inbounds [256 x i8], ptr %6, i64 0, i64 0
  %79 = call i64 (ptr, i64, ptr, ...) @av_strlcatf(ptr noundef %78, i64 noundef 256, ptr noundef @.str.7)
  %80 = load ptr, ptr %3, align 8, !tbaa !4
  %81 = getelementptr inbounds nuw %struct.AVFormatContext, ptr %80, i32 0, i32 4
  %82 = load ptr, ptr %81, align 8, !tbaa !42
  %83 = getelementptr inbounds [256 x i8], ptr %6, i64 0, i64 0
  %84 = getelementptr inbounds [256 x i8], ptr %6, i64 0, i64 0
  %85 = call i64 @strlen(ptr noundef %84) #6
  %86 = trunc i64 %85 to i32
  call void @avio_write(ptr noundef %82, ptr noundef %83, i32 noundef %86)
  call void @llvm.lifetime.end.p0(i64 256, ptr %6) #5
  call void @llvm.lifetime.end.p0(i64 4, ptr %5) #5
  ret i32 0
}