; Function Attrs: nounwind uwtable
define internal noundef i32 @framecrc_write_packet(ptr noundef readonly captures(none) %0, ptr noundef readonly captures(none) %1) #0 {
  %3 = alloca [256 x i8], align 16
  %4 = getelementptr inbounds nuw i8, ptr %1, i64 24
  %5 = load ptr, ptr %4, align 8, !tbaa !41
  %6 = getelementptr inbounds nuw i8, ptr %1, i64 32
  %7 = load i32, ptr %6, align 8, !tbaa !42
  %8 = sext i32 %7 to i64
  %9 = tail call i32 @av_adler32_update(i32 noundef 0, ptr noundef %5, i64 noundef %8) #6
  call void @llvm.lifetime.start.p0(i64 256, ptr nonnull %3) #7
  %10 = getelementptr inbounds nuw i8, ptr %1, i64 36
  %11 = load i32, ptr %10, align 4, !tbaa !43
  %12 = getelementptr inbounds nuw i8, ptr %1, i64 16
  %13 = load i64, ptr %12, align 8, !tbaa !44
  %14 = getelementptr inbounds nuw i8, ptr %1, i64 8
  %15 = load i64, ptr %14, align 8, !tbaa !45
  %16 = getelementptr inbounds nuw i8, ptr %1, i64 64
  %17 = load i64, ptr %16, align 8, !tbaa !46
  %18 = call i32 (ptr, i64, ptr, ...) @snprintf(ptr noundef nonnull dereferenceable(1) %3, i64 noundef 256, ptr noundef nonnull @.str.3, i32 noundef %11, i64 noundef %13, i64 noundef %15, i64 noundef %17, i32 noundef %7, i32 noundef %9) #7
  %19 = getelementptr inbounds nuw i8, ptr %1, i64 40
  %20 = load i32, ptr %19, align 8, !tbaa !47
  %.not = icmp eq i32 %20, 1
  br i1 %.not, label %23, label %21

21:                                               ; preds = %2
  %22 = call i64 (ptr, i64, ptr, ...) @av_strlcatf(ptr noundef nonnull %3, i64 noundef 256, ptr noundef nonnull @.str.4, i32 noundef %20) #7
  br label %23

23:                                               ; preds = %21, %2
  %24 = getelementptr inbounds nuw i8, ptr %1, i64 56
  %25 = load i32, ptr %24, align 8, !tbaa !48
  %.not19 = icmp eq i32 %25, 0
  br i1 %.not19, label %.loopexit, label %26

26:                                               ; preds = %23
  %27 = call i64 (ptr, i64, ptr, ...) @av_strlcatf(ptr noundef nonnull %3, i64 noundef 256, ptr noundef nonnull @.str.5, i32 noundef %25) #7
  %28 = load i32, ptr %24, align 8, !tbaa !48
  %29 = icmp sgt i32 %28, 0
  br i1 %29, label %.lr.ph, label %.loopexit

.lr.ph:                                           ; preds = %26
  %30 = getelementptr inbounds nuw i8, ptr %1, i64 48
  br label %31

31:                                               ; preds = %.lr.ph, %31
  %indvars.iv = phi i64 [ 0, %.lr.ph ], [ %indvars.iv.next, %31 ]
  %32 = load ptr, ptr %30, align 8, !tbaa !49
  %33 = getelementptr inbounds nuw %struct.AVPacketSideData, ptr %32, i64 %indvars.iv, i32 1
  %34 = load i64, ptr %33, align 8, !tbaa !50
  %35 = call i64 (ptr, i64, ptr, ...) @av_strlcatf(ptr noundef nonnull %3, i64 noundef 256, ptr noundef nonnull @.str.6, i64 noundef %34) #7
  %indvars.iv.next = add nuw nsw i64 %indvars.iv, 1
  %36 = load i32, ptr %24, align 8, !tbaa !48
  %37 = sext i32 %36 to i64
  %38 = icmp slt i64 %indvars.iv.next, %37
  br i1 %38, label %31, label %.loopexit, !llvm.loop !52

.loopexit:                                        ; preds = %31, %26, %23
  %39 = call i64 (ptr, i64, ptr, ...) @av_strlcatf(ptr noundef nonnull %3, i64 noundef 256, ptr noundef nonnull @.str.7) #7
  %40 = getelementptr inbounds nuw i8, ptr %0, i64 32
  %41 = load ptr, ptr %40, align 8, !tbaa !38
  %42 = call i64 @strlen(ptr noundef nonnull dereferenceable(1) %3) #6
  %43 = trunc i64 %42 to i32
  call void @avio_write(ptr noundef %41, ptr noundef nonnull %3, i32 noundef %43) #7
  call void @llvm.lifetime.end.p0(i64 256, ptr nonnull %3) #7
  ret i32 0
}